target datalayout = "e-m:e-p270:32:32-p271:32:32-p272:64:64-i64:64-i128:128-f80:128-n8:16:32:64-S128"
target triple = "x86_64-pc-linux-gnu"

%struct.nameData = type { [64 x i8] }
%struct.RelationData = type { %struct.RelFileLocator, ptr, i32, i32, i8, i8, i8, i8, i8, i32, i32, i32, i32, ptr, ptr, i32, %struct.LockInfoData, ptr, ptr, ptr, ptr, ptr, i8, ptr, ptr, ptr, ptr, ptr, ptr, i32, ptr, i8, ptr, ptr, i32, i8, i32, ptr, i8, ptr, ptr, ptr, ptr, ptr, ptr, ptr, i32, ptr, ptr, ptr, ptr, ptr, ptr, ptr, ptr, ptr, ptr, ptr, ptr, ptr, ptr, ptr, ptr, ptr, ptr, ptr, i32, i8, ptr }
%struct.RelFileLocator = type { i32, i32, i32 }
%struct.LockInfoData = type { %struct.LockRelId }
%struct.LockRelId = type { i32, i32 }
%struct.FormData_pg_class = type { i32, %struct.nameData, i32, i32, i32, i32, i32, i32, i32, i32, float, i32, i32, i8, i8, i8, i8, i16, i16, i8, i8, i8, i8, i8, i8, i8, i8, i32, i32, i32 }
%struct.ItemPointerData = type { %struct.BlockIdData, i16 }
%struct.BlockIdData = type { i16, i16 }
%struct.HeapTupleData = type { i32, %struct.ItemPointerData, i32, ptr }
%struct.HeapTupleHeaderData = type { %union.anon.0, %struct.ItemPointerData, i16, i16, i8, [0 x i8] }
%union.anon.0 = type { %struct.HeapTupleFields }
%struct.HeapTupleFields = type { i32, i32, %union.anon.1 }
%union.anon.1 = type { i32 }

@.str.1 = private unnamed_addr constant [7 x i8] c"heap.c\00", align 1
@.str.21 = private unnamed_addr constant [36 x i8] c"cache lookup failed for relation %u\00", align 1
@__func__.SetRelationNumChecks = private unnamed_addr constant [21 x i8] c"SetRelationNumChecks\00", align 1

; Function Attrs: inlinehint nounwind uwtable
define internal ptr @GETSTRUCT(ptr noundef %0) #5 {
  %2 = alloca ptr, align 8
  store ptr %0, ptr %2, align 8
  %3 = load ptr, ptr %2, align 8
  %4 = getelementptr inbounds nuw %struct.HeapTupleData, ptr %3, i32 0, i32 3
  %5 = load ptr, ptr %4, align 8
  %6 = load ptr, ptr %2, align 8
  %7 = getelementptr inbounds nuw %struct.HeapTupleData, ptr %6, i32 0, i32 3
  %8 = load ptr, ptr %7, align 8
  %9 = getelementptr inbounds nuw %struct.HeapTupleHeaderData, ptr %8, i32 0, i32 4
  %10 = load i8, ptr %9, align 2
  %11 = zext i8 %10 to i32
  %12 = sext i32 %11 to i64
  %13 = getelementptr inbounds i8, ptr %5, i64 %12
  ret ptr %13
}

; Function Attrs: inlinehint nounwind uwtable
define internal i64 @ObjectIdGetDatum(i32 noundef %0) #5 {
  %2 = alloca i32, align 4
  store i32 %0, ptr %2, align 4
  %3 = load i32, ptr %2, align 4
  %4 = zext i32 %3 to i64
  ret i64 %4
}

; Function Attrs: nounwind uwtable
define internal void @SetRelationNumChecks(ptr noundef %0, i32 noundef %1) #0 {
  %3 = alloca ptr, align 8
  %4 = alloca i32, align 4
  %5 = alloca ptr, align 8
  %6 = alloca ptr, align 8
  %7 = alloca ptr, align 8
  store ptr %0, ptr %3, align 8
  store i32 %1, ptr %4, align 4
  call void @llvm.lifetime.start.p0(i64 8, ptr %5) #10
  call void @llvm.lifetime.start.p0(i64 8, ptr %6) #10
  call void @llvm.lifetime.start.p0(i64 8, ptr %7) #10
  %8 = call ptr @table_open(i32 noundef 1259, i32 noundef 3)
  store ptr %8, ptr %5, align 8
  %9 = load ptr, ptr %3, align 8
  %10 = getelementptr inbounds nuw %struct.RelationData, ptr %9, i32 0, i32 15
  %11 = load i32, ptr %10, align 8
  %12 = call i64 @ObjectIdGetDatum(i32 noundef %11)
  %13 = call ptr @SearchSysCacheCopy(i32 noundef 57, i64 noundef %12, i64 noundef 0, i64 noundef 0, i64 noundef 0)
  store ptr %13, ptr %6, align 8
  %14 = load ptr, ptr %6, align 8
  %15 = icmp ne ptr %14, null
  br i1 %15, label %30, label %16

16:                                               ; preds = %2
  br label %17

17:                                               ; preds = %16
  br i1 true, label %18, label %20

18:                                               ; preds = %17
  %19 = call zeroext i1 @errstart_cold(i32 noundef 21, ptr noundef null) #9
  br i1 %19, label %22, label %27

20:                                               ; preds = %17
  %21 = call zeroext i1 @errstart(i32 noundef 21, ptr noundef null)
  br i1 %21, label %22, label %27

22:                                               ; preds = %20, %18
  %23 = load ptr, ptr %3, align 8
  %24 = getelementptr inbounds nuw %struct.RelationData, ptr %23, i32 0, i32 15
  %25 = load i32, ptr %24, align 8
  %26 = call i32 (ptr, ...) @errmsg_internal(ptr noundef @.str.21, i32 noundef %25)
  call void @errfinish(ptr noundef @.str.1, i32 noundef 3101, ptr noundef @__func__.SetRelationNumChecks)
  br label %27

27:                                               ; preds = %22, %20, %18
  unreachable

28:                                               ; No predecessors!
  br label %29

29:                                               ; preds = %28
  br label %30

30:                                               ; preds = %29, %2
  %31 = load ptr, ptr %6, align 8
  %32 = call ptr @GETSTRUCT(ptr noundef %31)
  store ptr %32, ptr %7, align 8
  %33 = load ptr, ptr %7, align 8
  %34 = getelementptr inbounds nuw %struct.FormData_pg_class, ptr %33, i32 0, i32 18
  %35 = load i16, ptr %34, align 2
  %36 = sext i16 %35 to i32
  %37 = load i32, ptr %4, align 4
  %38 = icmp ne i32 %36, %37
  br i1 %38, label %39, label %48

39:                                               ; preds = %30
  %40 = load i32, ptr %4, align 4
  %41 = trunc i32 %40 to i16
  %42 = load ptr, ptr %7, align 8
  %43 = getelementptr inbounds nuw %struct.FormData_pg_class, ptr %42, i32 0, i32 18
  store i16 %41, ptr %43, align 2
  %44 = load ptr, ptr %5, align 8
  %45 = load ptr, ptr %6, align 8
  %46 = getelementptr inbounds nuw %struct.HeapTupleData, ptr %45, i32 0, i32 1
  %47 = load ptr, ptr %6, align 8
  call void @CatalogTupleUpdate(ptr noundef %44, ptr noundef %46, ptr noundef %47)
  br label %50

48:                                               ; preds = %30
  %49 = load ptr, ptr %3, align 8
  call void @CacheInvalidateRelcache(ptr noundef %49)
  br label %50

50:                                               ; preds = %48, %39
  %51 = load ptr, ptr %6, align 8
  call void @heap_freetuple(ptr noundef %51)
  %52 = load ptr, ptr %5, align 8
  call void @table_close(ptr noundef %52, i32 noundef 3)
  call void @llvm.lifetime.end.p0(i64 8, ptr %7) #10
  call void @llvm.lifetime.end.p0(i64 8, ptr %6) #10
  call void @llvm.lifetime.end.p0(i64 8, ptr %5) #10
  ret void
}