; Function Attrs: nounwind uwtable
define internal fastcc void @SetRelationNumChecks(ptr noundef %0, i32 noundef %1) unnamed_addr #0 {
  %3 = tail call ptr @table_open(i32 noundef 1259, i32 noundef 3) #11
  %4 = getelementptr inbounds nuw i8, ptr %0, i64 72
  %5 = load i32, ptr %4, align 8
  %6 = zext i32 %5 to i64
  %7 = tail call ptr @SearchSysCacheCopy(i32 noundef 57, i64 noundef %6, i64 noundef 0, i64 noundef 0, i64 noundef 0) #11
  %.not = icmp eq ptr %7, null
  br i1 %.not, label %8, label %12

8:                                                ; preds = %2
  %9 = tail call zeroext i1 @errstart_cold(i32 noundef 21, ptr noundef null) #10
  tail call void @llvm.assume(i1 %9)
  %10 = load i32, ptr %4, align 8
  %11 = tail call i32 (ptr, ...) @errmsg_internal(ptr noundef nonnull @.str.21, i32 noundef %10) #11
  tail call void @errfinish(ptr noundef nonnull @.str.1, i32 noundef 3101, ptr noundef nonnull @__func__.SetRelationNumChecks) #11
  unreachable

12:                                               ; preds = %2
  %13 = getelementptr i8, ptr %7, i64 16
  %.val = load ptr, ptr %13, align 8
  %14 = getelementptr inbounds nuw i8, ptr %.val, i64 22
  %15 = load i8, ptr %14, align 2
  %16 = zext i8 %15 to i64
  %17 = getelementptr inbounds nuw i8, ptr %.val, i64 %16
  %18 = getelementptr inbounds nuw i8, ptr %17, i64 118
  %19 = load i16, ptr %18, align 2
  %20 = sext i16 %19 to i32
  %.not14 = icmp eq i32 %1, %20
  br i1 %.not14, label %24, label %21

21:                                               ; preds = %12
  %22 = trunc i32 %1 to i16
  store i16 %22, ptr %18, align 2
  %23 = getelementptr inbounds nuw i8, ptr %7, i64 4
  tail call void @CatalogTupleUpdate(ptr noundef %3, ptr noundef nonnull %23, ptr noundef nonnull %7) #11
  br label %25

24:                                               ; preds = %12
  tail call void @CacheInvalidateRelcache(ptr noundef nonnull %0) #11
  br label %25

25:                                               ; preds = %24, %21
  tail call void @heap_freetuple(ptr noundef nonnull %7) #11
  tail call void @table_close(ptr noundef %3, i32 noundef 3) #11
  ret void
}